; Function Attrs: nounwind uwtable
define internal noundef i32 @camellia_cfb1_cipher(ptr noundef %0, ptr noundef %1, ptr noundef %2, i64 noundef %3) #1 {
  %5 = alloca i32, align 4
  %6 = alloca i32, align 4
  %7 = alloca i32, align 4
  %8 = tail call ptr @EVP_CIPHER_CTX_get_cipher_data(ptr noundef %0) #4
  %9 = tail call i32 @EVP_CIPHER_CTX_test_flags(ptr noundef %0, i32 noundef 8192) #4
  %.not = icmp eq i32 %9, 0
  br i1 %.not, label %.preheader, label %13

.preheader:                                       ; preds = %4
  %10 = icmp ugt i64 %3, 1152921504606846975
  br i1 %10, label %.lr.ph, label %._crit_edge

.lr.ph:                                           ; preds = %.preheader
  %11 = getelementptr inbounds nuw i8, ptr %0, i64 40
  %12 = getelementptr inbounds nuw i8, ptr %8, i64 280
  br label %21

13:                                               ; preds = %4
  call void @llvm.lifetime.start.p0(i64 4, ptr nonnull %5) #4
  %14 = tail call i32 @EVP_CIPHER_CTX_get_num(ptr noundef %0) #4
  store i32 %14, ptr %5, align 4, !tbaa !13
  %15 = getelementptr inbounds nuw i8, ptr %0, i64 40
  %16 = tail call i32 @EVP_CIPHER_CTX_is_encrypting(ptr noundef %0) #4
  %17 = getelementptr inbounds nuw i8, ptr %8, i64 280
  %18 = load ptr, ptr %17, align 8, !tbaa !3
  call void @CRYPTO_cfb128_1_encrypt(ptr noundef %2, ptr noundef %1, i64 noundef %3, ptr noundef %8, ptr noundef nonnull %15, ptr noundef nonnull %5, i32 noundef %16, ptr noundef %18) #4
  %19 = load i32, ptr %5, align 4, !tbaa !13
  %20 = call i32 @EVP_CIPHER_CTX_set_num(ptr noundef %0, i32 noundef %19) #4
  call void @llvm.lifetime.end.p0(i64 4, ptr nonnull %5) #4
  br label %40

21:                                               ; preds = %.lr.ph, %21
  %.03339 = phi i64 [ %3, %.lr.ph ], [ %27, %21 ]
  %.03438 = phi ptr [ %2, %.lr.ph ], [ %29, %21 ]
  %.03537 = phi ptr [ %1, %.lr.ph ], [ %28, %21 ]
  call void @llvm.lifetime.start.p0(i64 4, ptr nonnull %6) #4
  %22 = call i32 @EVP_CIPHER_CTX_get_num(ptr noundef %0) #4
  store i32 %22, ptr %6, align 4, !tbaa !13
  %23 = call i32 @EVP_CIPHER_CTX_is_encrypting(ptr noundef %0) #4
  %24 = load ptr, ptr %12, align 8, !tbaa !3
  call void @CRYPTO_cfb128_1_encrypt(ptr noundef %.03438, ptr noundef %.03537, i64 noundef -9223372036854775808, ptr noundef %8, ptr noundef nonnull %11, ptr noundef nonnull %6, i32 noundef %23, ptr noundef %24) #4
  %25 = load i32, ptr %6, align 4, !tbaa !13
  %26 = call i32 @EVP_CIPHER_CTX_set_num(ptr noundef %0, i32 noundef %25) #4
  %27 = add i64 %.03339, -1152921504606846976
  %28 = getelementptr inbounds nuw i8, ptr %.03537, i64 1152921504606846976
  %29 = getelementptr inbounds nuw i8, ptr %.03438, i64 1152921504606846976
  call void @llvm.lifetime.end.p0(i64 4, ptr nonnull %6) #4
  %30 = icmp ugt i64 %27, 1152921504606846975
  br i1 %30, label %21, label %._crit_edge, !llvm.loop !14

._crit_edge:                                      ; preds = %21, %.preheader
  %.035.lcssa = phi ptr [ %1, %.preheader ], [ %28, %21 ]
  %.034.lcssa = phi ptr [ %2, %.preheader ], [ %29, %21 ]
  %.033.lcssa = phi i64 [ %3, %.preheader ], [ %27, %21 ]
  %.not36 = icmp eq i64 %.033.lcssa, 0
  br i1 %.not36, label %40, label %31

31:                                               ; preds = %._crit_edge
  call void @llvm.lifetime.start.p0(i64 4, ptr nonnull %7) #4
  %32 = call i32 @EVP_CIPHER_CTX_get_num(ptr noundef %0) #4
  store i32 %32, ptr %7, align 4, !tbaa !13
  %33 = shl nuw nsw i64 %.033.lcssa, 3
  %34 = getelementptr inbounds nuw i8, ptr %0, i64 40
  %35 = call i32 @EVP_CIPHER_CTX_is_encrypting(ptr noundef %0) #4
  %36 = getelementptr inbounds nuw i8, ptr %8, i64 280
  %37 = load ptr, ptr %36, align 8, !tbaa !3
  call void @CRYPTO_cfb128_1_encrypt(ptr noundef %.034.lcssa, ptr noundef %.035.lcssa, i64 noundef %33, ptr noundef %8, ptr noundef nonnull %34, ptr noundef nonnull %7, i32 noundef %35, ptr noundef %37) #4
  %38 = load i32, ptr %7, align 4, !tbaa !13
  %39 = call i32 @EVP_CIPHER_CTX_set_num(ptr noundef %0, i32 noundef %38) #4
  call void @llvm.lifetime.end.p0(i64 4, ptr nonnull %7) #4
  br label %40

40:                                               ; preds = %._crit_edge, %31, %13
  ret i32 1
}